((lp0
S'14, 96'
p1
aS'31, 93'
p2
aS'61, 45'
p3
aS'16, 18'
p4
aS'33, 68'
p5
aS'3, 2'
p6
aS'50, 96'
p7
aS'95, 58'
p8
aS'12, 20'
p9
aS'53, 38'
p10
aS'89, 71'
p11
aS'56, 34'
p12
aS'70, 7'
p13
aS'31, 57'
p14
a(lp15
(lp16
I0
aI17
aI69
aI78
aI33
aI94
aI36
aI89
aI76
aI69
aI79
aI74
aI105
aI42
aa(lp17
I17
aI0
aI56
aI76
aI25
aI95
aI19
aI72
aI75
aI59
aI62
aI64
aI94
aI36
aa(lp18
I69
aI56
aI0
aI52
aI36
aI72
aI52
aI36
aI55
aI10
aI38
aI12
aI39
aI32
aa(lp19
I78
aI76
aI52
aI0
aI52
aI20
aI85
aI88
aI4
aI42
aI90
aI43
aI55
aI41
aa(lp20
I33
aI25
aI36
aI52
aI0
aI72
aI32
aI62
aI52
aI36
aI56
aI41
aI71
aI11
aa(lp21
I94
aI95
aI72
aI20
aI72
aI0
aI105
aI107
aI20
aI61
aI110
aI61
aI67
aI61
aa(lp22
I36
aI19
aI52
aI85
aI32
aI105
aI0
aI58
aI84
aI58
aI46
aI62
aI91
aI43
aa(lp23
I89
aI72
aI36
aI88
aI62
aI107
aI58
aI0
aI91
aI46
aI14
aI45
aI56
aI64
aa(lp24
I76
aI75
aI55
aI4
aI52
aI20
aI84
aI91
aI0
aI44
aI92
aI46
aI59
aI41
aa(lp25
I69
aI59
aI10
aI42
aI36
aI61
aI58
aI46
aI44
aI0
aI48
aI5
aI35
aI29
aa(lp26
I79
aI62
aI38
aI90
aI56
aI110
aI46
aI14
aI92
aI48
aI0
aI49
aI66
aI59
aa(lp27
I74
aI64
aI12
aI43
aI41
aI61
aI62
aI45
aI46
aI5
aI49
aI0
aI30
aI33
aa(lp28
I105
aI94
aI39
aI55
aI71
aI67
aI91
aI56
aI59
aI35
aI66
aI30
aI0
aI63
aa(lp29
I42
aI36
aI32
aI41
aI11
aI61
aI43
aI64
aI41
aI29
aI59
aI33
aI63
aI0
aatp30
.
